target datalayout = "e-m:e-p270:32:32-p271:32:32-p272:64:64-i64:64-i128:128-f80:128-n8:16:32:64-S128"
target triple = "x86_64-pc-linux-gnu"

%struct.Abc_Frame_t_ = type { ptr, ptr, ptr, ptr, ptr, ptr, ptr, ptr, ptr, ptr, i32, i32, i32, i32, i32, ptr, float, float, i32, i32, ptr, ptr, ptr, double, double, ptr, ptr, ptr, ptr, ptr, ptr, ptr, ptr, ptr, ptr, ptr, ptr, float, ptr, i32, ptr, ptr, ptr, ptr, ptr, i32, i32, i32, i32, i32, i32, ptr, ptr, ptr, ptr, ptr, ptr, i32, i32, ptr, ptr, ptr, ptr, ptr, ptr, ptr, ptr, ptr, ptr, ptr, ptr, ptr, ptr, ptr, ptr, ptr, ptr, ptr, ptr, ptr, ptr, ptr, ptr, ptr, ptr, ptr, ptr, ptr, ptr }
%struct.Wlc_Ntk_t_ = type { ptr, ptr, %struct.Vec_Int_t_, %struct.Vec_Int_t_, %struct.Vec_Int_t_, %struct.Vec_Int_t_, %struct.Vec_Int_t_, %struct.Vec_Int_t_, ptr, ptr, ptr, [60 x i32], [60 x i32], i32, i32, i32, i32, i32, ptr, i32, i32, ptr, ptr, ptr, ptr, ptr, %struct.Vec_Int_t_, %struct.Vec_Int_t_, i32, %struct.Vec_Int_t_, %struct.Vec_Int_t_, %struct.Vec_Int_t_, %struct.Vec_Int_t_, %struct.Vec_Int_t_, %struct.Vec_Int_t_ }
%struct.Vec_Int_t_ = type { i32, i32, ptr }

@globalUtilOptind = external global i32, align 4
@.str.36 = private unnamed_addr constant [4 x i8] c"ndr\00", align 1
@.str.41 = private unnamed_addr constant [4 x i8] c"yes\00", align 1
@.str.42 = private unnamed_addr constant [3 x i8] c"no\00", align 1
@.str.45 = private unnamed_addr constant [62 x i8] c"\09-v     : toggle printing verbose information [default = %s]\0A\00", align 1
@.str.46 = private unnamed_addr constant [35 x i8] c"\09-h     : print the command usage\0A\00", align 1
@.str.49 = private unnamed_addr constant [6 x i8] c"anfvh\00", align 1
@.str.50 = private unnamed_addr constant [52 x i8] c"Abc_CommandWriteWlc(): There is no current design.\0A\00", align 1
@.str.51 = private unnamed_addr constant [7 x i8] c"_out.v\00", align 1
@.str.52 = private unnamed_addr constant [55 x i8] c"Output file name should be given on the command line.\0A\00", align 1
@.str.53 = private unnamed_addr constant [25 x i8] c"usage: %%write [-anfvh]\0A\00", align 1
@.str.54 = private unnamed_addr constant [41 x i8] c"\09         writes the design into a file\0A\00", align 1
@.str.55 = private unnamed_addr constant [59 x i8] c"\09-a     : toggle adding a CO for each node [default = %s]\0A\00", align 1
@.str.56 = private unnamed_addr constant [65 x i8] c"\09-n     : toggle splitting into individual nodes [default = %s]\0A\00", align 1
@.str.57 = private unnamed_addr constant [66 x i8] c"\09-f     : toggle skipping flops when writing file [default = %s]\0A\00", align 1

; Function Attrs: inlinehint nounwind uwtable
define internal ptr @Wlc_AbcGetNtk(ptr noundef %0) #2 {
  %2 = alloca ptr, align 8
  store ptr %0, ptr %2, align 8, !tbaa !3
  %3 = load ptr, ptr %2, align 8, !tbaa !3
  %4 = getelementptr inbounds nuw %struct.Abc_Frame_t_, ptr %3, i32 0, i32 71
  %5 = load ptr, ptr %4, align 8, !tbaa !132
  ret ptr %5
}

; Function Attrs: nounwind uwtable
define internal i32 @Abc_CommandWriteWlc(ptr noundef %0, i32 noundef %1, ptr noundef %2) #0 {
  %4 = alloca i32, align 4
  %5 = alloca ptr, align 8
  %6 = alloca i32, align 4
  %7 = alloca ptr, align 8
  %8 = alloca ptr, align 8
  %9 = alloca ptr, align 8
  %10 = alloca i32, align 4
  %11 = alloca i32, align 4
  %12 = alloca i32, align 4
  %13 = alloca i32, align 4
  %14 = alloca i32, align 4
  %15 = alloca i32, align 4
  store ptr %0, ptr %5, align 8, !tbaa !3
  store i32 %1, ptr %6, align 4, !tbaa !8
  store ptr %2, ptr %7, align 8, !tbaa !10
  call void @llvm.lifetime.start.p0(i64 8, ptr %8) #12
  %16 = load ptr, ptr %5, align 8, !tbaa !3
  %17 = call ptr @Wlc_AbcGetNtk(ptr noundef %16)
  store ptr %17, ptr %8, align 8, !tbaa !12
  call void @llvm.lifetime.start.p0(i64 8, ptr %9) #12
  store ptr null, ptr %9, align 8, !tbaa !14
  call void @llvm.lifetime.start.p0(i64 4, ptr %10) #12
  store i32 0, ptr %10, align 4, !tbaa !8
  call void @llvm.lifetime.start.p0(i64 4, ptr %11) #12
  store i32 0, ptr %11, align 4, !tbaa !8
  call void @llvm.lifetime.start.p0(i64 4, ptr %12) #12
  store i32 0, ptr %12, align 4, !tbaa !8
  call void @llvm.lifetime.start.p0(i64 4, ptr %13) #12
  call void @llvm.lifetime.start.p0(i64 4, ptr %14) #12
  store i32 0, ptr %14, align 4, !tbaa !8
  call void (...) @Extra_UtilGetoptReset()
  br label %18

18:                                               ; preds = %39, %3
  %19 = load i32, ptr %6, align 4, !tbaa !8
  %20 = load ptr, ptr %7, align 8, !tbaa !10
  %21 = call i32 @Extra_UtilGetopt(i32 noundef %19, ptr noundef %20, ptr noundef @.str.49)
  store i32 %21, ptr %13, align 4, !tbaa !8
  %22 = icmp ne i32 %21, -1
  br i1 %22, label %23, label %40

23:                                               ; preds = %18
  %24 = load i32, ptr %13, align 4, !tbaa !8
  switch i32 %24, label %38 [
    i32 97, label %25
    i32 110, label %28
    i32 102, label %31
    i32 118, label %34
    i32 104, label %37
  ]

25:                                               ; preds = %23
  %26 = load i32, ptr %10, align 4, !tbaa !8
  %27 = xor i32 %26, 1
  store i32 %27, ptr %10, align 4, !tbaa !8
  br label %39

28:                                               ; preds = %23
  %29 = load i32, ptr %11, align 4, !tbaa !8
  %30 = xor i32 %29, 1
  store i32 %30, ptr %11, align 4, !tbaa !8
  br label %39

31:                                               ; preds = %23
  %32 = load i32, ptr %12, align 4, !tbaa !8
  %33 = xor i32 %32, 1
  store i32 %33, ptr %12, align 4, !tbaa !8
  br label %39

34:                                               ; preds = %23
  %35 = load i32, ptr %14, align 4, !tbaa !8
  %36 = xor i32 %35, 1
  store i32 %36, ptr %14, align 4, !tbaa !8
  br label %39

37:                                               ; preds = %23
  br label %93

38:                                               ; preds = %23
  br label %93

39:                                               ; preds = %34, %31, %28, %25
  br label %18, !llvm.loop !34

40:                                               ; preds = %18
  %41 = load ptr, ptr %8, align 8, !tbaa !12
  %42 = icmp eq ptr %41, null
  br i1 %42, label %43, label %44

43:                                               ; preds = %40
  call void (i32, ptr, ...) @Abc_Print(i32 noundef 1, ptr noundef @.str.50)
  store i32 0, ptr %4, align 4
  store i32 1, ptr %15, align 4
  br label %106

44:                                               ; preds = %40
  %45 = load i32, ptr %6, align 4, !tbaa !8
  %46 = load i32, ptr @globalUtilOptind, align 4, !tbaa !8
  %47 = icmp eq i32 %45, %46
  br i1 %47, label %48, label %53

48:                                               ; preds = %44
  %49 = load ptr, ptr %8, align 8, !tbaa !12
  %50 = getelementptr inbounds nuw %struct.Wlc_Ntk_t_, ptr %49, i32 0, i32 0
  %51 = load ptr, ptr %50, align 8, !tbaa !35
  %52 = call ptr @Extra_FileNameGenericAppend(ptr noundef %51, ptr noundef @.str.51)
  store ptr %52, ptr %9, align 8, !tbaa !14
  br label %67

53:                                               ; preds = %44
  %54 = load i32, ptr %6, align 4, !tbaa !8
  %55 = load i32, ptr @globalUtilOptind, align 4, !tbaa !8
  %56 = add nsw i32 %55, 1
  %57 = icmp eq i32 %54, %56
  br i1 %57, label %58, label %64

58:                                               ; preds = %53
  %59 = load ptr, ptr %7, align 8, !tbaa !10
  %60 = load i32, ptr @globalUtilOptind, align 4, !tbaa !8
  %61 = sext i32 %60 to i64
  %62 = getelementptr inbounds ptr, ptr %59, i64 %61
  %63 = load ptr, ptr %62, align 8, !tbaa !14
  store ptr %63, ptr %9, align 8, !tbaa !14
  br label %66

64:                                               ; preds = %53
  %65 = call i32 (ptr, ...) @printf(ptr noundef @.str.52)
  store i32 0, ptr %4, align 4
  store i32 1, ptr %15, align 4
  br label %106

66:                                               ; preds = %58
  br label %67

67:                                               ; preds = %66, %48
  %68 = load ptr, ptr %9, align 8, !tbaa !14
  %69 = call ptr @Extra_FileNameExtension(ptr noundef %68)
  %70 = call i32 @strcmp(ptr noundef %69, ptr noundef @.str.36) #13
  %71 = icmp ne i32 %70, 0
  br i1 %71, label %75, label %72

72:                                               ; preds = %67
  %73 = load ptr, ptr %8, align 8, !tbaa !12
  %74 = load ptr, ptr %9, align 8, !tbaa !14
  call void @Wlc_WriteNdr(ptr noundef %73, ptr noundef %74)
  br label %92

75:                                               ; preds = %67
  %76 = load i32, ptr %11, align 4, !tbaa !8
  %77 = icmp ne i32 %76, 0
  br i1 %77, label %78, label %86

78:                                               ; preds = %75
  %79 = load ptr, ptr %8, align 8, !tbaa !12
  %80 = call ptr @Wlc_NtkDupSingleNodes(ptr noundef %79)
  store ptr %80, ptr %8, align 8, !tbaa !12
  %81 = load ptr, ptr %8, align 8, !tbaa !12
  %82 = load ptr, ptr %9, align 8, !tbaa !14
  %83 = load i32, ptr %10, align 4, !tbaa !8
  %84 = load i32, ptr %12, align 4, !tbaa !8
  call void @Wlc_WriteVer(ptr noundef %81, ptr noundef %82, i32 noundef %83, i32 noundef %84)
  %85 = load ptr, ptr %8, align 8, !tbaa !12
  call void @Wlc_NtkFree(ptr noundef %85)
  br label %91

86:                                               ; preds = %75
  %87 = load ptr, ptr %8, align 8, !tbaa !12
  %88 = load ptr, ptr %9, align 8, !tbaa !14
  %89 = load i32, ptr %10, align 4, !tbaa !8
  %90 = load i32, ptr %12, align 4, !tbaa !8
  call void @Wlc_WriteVer(ptr noundef %87, ptr noundef %88, i32 noundef %89, i32 noundef %90)
  br label %91

91:                                               ; preds = %86, %78
  br label %92

92:                                               ; preds = %91, %72
  store i32 0, ptr %4, align 4
  store i32 1, ptr %15, align 4
  br label %106

93:                                               ; preds = %38, %37
  call void (i32, ptr, ...) @Abc_Print(i32 noundef -2, ptr noundef @.str.53)
  call void (i32, ptr, ...) @Abc_Print(i32 noundef -2, ptr noundef @.str.54)
  %94 = load i32, ptr %10, align 4, !tbaa !8
  %95 = icmp ne i32 %94, 0
  %96 = select i1 %95, ptr @.str.41, ptr @.str.42
  call void (i32, ptr, ...) @Abc_Print(i32 noundef -2, ptr noundef @.str.55, ptr noundef %96)
  %97 = load i32, ptr %11, align 4, !tbaa !8
  %98 = icmp ne i32 %97, 0
  %99 = select i1 %98, ptr @.str.41, ptr @.str.42
  call void (i32, ptr, ...) @Abc_Print(i32 noundef -2, ptr noundef @.str.56, ptr noundef %99)
  %100 = load i32, ptr %12, align 4, !tbaa !8
  %101 = icmp ne i32 %100, 0
  %102 = select i1 %101, ptr @.str.41, ptr @.str.42
  call void (i32, ptr, ...) @Abc_Print(i32 noundef -2, ptr noundef @.str.57, ptr noundef %102)
  %103 = load i32, ptr %14, align 4, !tbaa !8
  %104 = icmp ne i32 %103, 0
  %105 = select i1 %104, ptr @.str.41, ptr @.str.42
  call void (i32, ptr, ...) @Abc_Print(i32 noundef -2, ptr noundef @.str.45, ptr noundef %105)
  call void (i32, ptr, ...) @Abc_Print(i32 noundef -2, ptr noundef @.str.46)
  store i32 1, ptr %4, align 4
  store i32 1, ptr %15, align 4
  br label %106

106:                                              ; preds = %93, %92, %64, %43
  call void @llvm.lifetime.end.p0(i64 4, ptr %14) #12
  call void @llvm.lifetime.end.p0(i64 4, ptr %13) #12
  call void @llvm.lifetime.end.p0(i64 4, ptr %12) #12
  call void @llvm.lifetime.end.p0(i64 4, ptr %11) #12
  call void @llvm.lifetime.end.p0(i64 4, ptr %10) #12
  call void @llvm.lifetime.end.p0(i64 8, ptr %9) #12
  call void @llvm.lifetime.end.p0(i64 8, ptr %8) #12
  %107 = load i32, ptr %4, align 4
  ret i32 %107
}