; Function Attrs: nounwind uwtable
define internal range(i32 0, 2) i32 @Abc_CommandWriteWlc(ptr noundef readonly captures(none) %0, i32 noundef %1, ptr noundef %2) #0 {
  %4 = getelementptr i8, ptr %0, i64 504
  %.val = load ptr, ptr %4, align 8, !tbaa !27
  tail call void (...) @Extra_UtilGetoptReset() #17
  br label %.outer

.outer:                                           ; preds = %7, %3
  %.036.ph = phi i32 [ %8, %7 ], [ 0, %3 ]
  %.034.ph = phi i32 [ %.034.ph66, %7 ], [ 0, %3 ]
  %.032.ph = phi i32 [ %.032.ph70, %7 ], [ 0, %3 ]
  %.0.ph = phi i32 [ %.0, %7 ], [ 0, %3 ]
  br label %.outer65

.outer65:                                         ; preds = %.outer, %9
  %.034.ph66 = phi i32 [ %.034.ph, %.outer ], [ %10, %9 ]
  %.032.ph67 = phi i32 [ %.032.ph, %.outer ], [ %.032.ph70, %9 ]
  %.0.ph68 = phi i32 [ %.0.ph, %.outer ], [ %.0, %9 ]
  br label %.outer69

.outer69:                                         ; preds = %.outer65, %11
  %.032.ph70 = phi i32 [ %.032.ph67, %.outer65 ], [ %12, %11 ]
  %.0.ph71 = phi i32 [ %.0.ph68, %.outer65 ], [ %.0, %11 ]
  br label %5

5:                                                ; preds = %.outer69, %13
  %.0 = phi i32 [ %14, %13 ], [ %.0.ph71, %.outer69 ]
  %6 = tail call i32 @Extra_UtilGetopt(i32 noundef %1, ptr noundef %2, ptr noundef nonnull @.str.49) #17
  switch i32 %6, label %40 [
    i32 -1, label %15
    i32 97, label %7
    i32 110, label %9
    i32 102, label %11
    i32 118, label %13
  ]

7:                                                ; preds = %5
  %8 = xor i32 %.036.ph, 1
  br label %.outer, !llvm.loop !28

9:                                                ; preds = %5
  %10 = xor i32 %.034.ph66, 1
  br label %.outer65, !llvm.loop !28

11:                                               ; preds = %5
  %12 = xor i32 %.032.ph70, 1
  br label %.outer69, !llvm.loop !28

13:                                               ; preds = %5
  %14 = xor i32 %.0, 1
  br label %5, !llvm.loop !28

15:                                               ; preds = %5
  %16 = icmp eq ptr %.val, null
  br i1 %16, label %17, label %18

17:                                               ; preds = %15
  tail call void (i32, ptr, ...) @Abc_Print(i32 noundef 1, ptr noundef nonnull @.str.50)
  br label %45

18:                                               ; preds = %15
  %19 = load i32, ptr @globalUtilOptind, align 4, !tbaa !5
  %20 = icmp eq i32 %1, %19
  br i1 %20, label %21, label %24

21:                                               ; preds = %18
  %22 = load ptr, ptr %.val, align 8, !tbaa !29
  %23 = tail call ptr @Extra_FileNameGenericAppend(ptr noundef %22, ptr noundef nonnull @.str.51) #17
  br label %32

24:                                               ; preds = %18
  %25 = add nsw i32 %19, 1
  %26 = icmp eq i32 %1, %25
  br i1 %26, label %27, label %31

27:                                               ; preds = %24
  %28 = sext i32 %19 to i64
  %29 = getelementptr inbounds ptr, ptr %2, i64 %28
  %30 = load ptr, ptr %29, align 8, !tbaa !9
  br label %32

31:                                               ; preds = %24
  %puts = tail call i32 @puts(ptr nonnull dereferenceable(1) @str.2)
  br label %45

32:                                               ; preds = %27, %21
  %.038 = phi ptr [ %23, %21 ], [ %30, %27 ]
  %33 = tail call ptr @Extra_FileNameExtension(ptr noundef %.038) #17
  %34 = tail call i32 @strcmp(ptr noundef nonnull dereferenceable(1) %33, ptr noundef nonnull dereferenceable(4) @.str.36) #18
  %.not43 = icmp eq i32 %34, 0
  br i1 %.not43, label %35, label %36

35:                                               ; preds = %32
  tail call void @Wlc_WriteNdr(ptr noundef nonnull %.val, ptr noundef %.038) #17
  br label %45

36:                                               ; preds = %32
  %.not44 = icmp eq i32 %.034.ph66, 0
  br i1 %.not44, label %39, label %37

37:                                               ; preds = %36
  %38 = tail call ptr @Wlc_NtkDupSingleNodes(ptr noundef nonnull %.val) #17
  tail call void @Wlc_WriteVer(ptr noundef %38, ptr noundef %.038, i32 noundef %.036.ph, i32 noundef %.032.ph70) #17
  tail call void @Wlc_NtkFree(ptr noundef %38) #17
  br label %45

39:                                               ; preds = %36
  tail call void @Wlc_WriteVer(ptr noundef nonnull %.val, ptr noundef %.038, i32 noundef %.036.ph, i32 noundef %.032.ph70) #17
  br label %45

40:                                               ; preds = %5
  tail call void (i32, ptr, ...) @Abc_Print(i32 noundef -2, ptr noundef nonnull @.str.53)
  tail call void (i32, ptr, ...) @Abc_Print(i32 noundef -2, ptr noundef nonnull @.str.54)
  %.not45 = icmp eq i32 %.036.ph, 0
  %41 = select i1 %.not45, ptr @.str.42, ptr @.str.41
  tail call void (i32, ptr, ...) @Abc_Print(i32 noundef -2, ptr noundef nonnull @.str.55, ptr noundef nonnull %41)
  %.not46 = icmp eq i32 %.034.ph66, 0
  %42 = select i1 %.not46, ptr @.str.42, ptr @.str.41
  tail call void (i32, ptr, ...) @Abc_Print(i32 noundef -2, ptr noundef nonnull @.str.56, ptr noundef nonnull %42)
  %.not47 = icmp eq i32 %.032.ph70, 0
  %43 = select i1 %.not47, ptr @.str.42, ptr @.str.41
  tail call void (i32, ptr, ...) @Abc_Print(i32 noundef -2, ptr noundef nonnull @.str.57, ptr noundef nonnull %43)
  %.not48 = icmp eq i32 %.0, 0
  %44 = select i1 %.not48, ptr @.str.42, ptr @.str.41
  tail call void (i32, ptr, ...) @Abc_Print(i32 noundef -2, ptr noundef nonnull @.str.45, ptr noundef nonnull %44)
  tail call void (i32, ptr, ...) @Abc_Print(i32 noundef -2, ptr noundef nonnull @.str.46)
  br label %45

45:                                               ; preds = %35, %39, %37, %40, %31, %17
  %.031 = phi i32 [ 1, %40 ], [ 0, %17 ], [ 0, %31 ], [ 0, %37 ], [ 0, %39 ], [ 0, %35 ]
  ret i32 %.031
}